; ModuleID = '38/1739.c'
source_filename = "38/1739.c"
target datalayout = "e-m:e-p270:32:32-p271:32:32-p272:64:64-i64:64-f80:128-n8:16:32:64-S128"
target triple = "x86_64-pc-linux-gnu"

@.str = private unnamed_addr constant [3 x i8] c"%d\00", align 1
@.str.1 = private unnamed_addr constant [4 x i8] c"%lf\00", align 1
@.str.2 = private unnamed_addr constant [6 x i8] c"%.5f\0A\00", align 1

; Function Attrs: noinline nounwind uwtable
define dso_local i32 @main() #0 {
  %1 = alloca i32, align 4
  %2 = alloca i32, align 4
  %3 = alloca i32, align 4
  %4 = alloca i32, align 4
  %5 = alloca i32, align 4
  %6 = alloca double, align 8
  %7 = alloca [1000 x double], align 16
  %8 = alloca double, align 8
  store i32 0, i32* %1, align 4
  %9 = call i32 (i8*, ...) @__isoc99_scanf(i8* getelementptr inbounds ([3 x i8], [3 x i8]* @.str, i64 0, i64 0), i32* %2)
  store i32 0, i32* %4, align 4
  br label %10

10:                                               ; preds = %64, %0
  %11 = load i32, i32* %4, align 4
  %12 = load i32, i32* %2, align 4
  %13 = icmp slt i32 %11, %12
  br i1 %13, label %14, label %67

14:                                               ; preds = %10
  %15 = call i32 (i8*, ...) @__isoc99_scanf(i8* getelementptr inbounds ([3 x i8], [3 x i8]* @.str, i64 0, i64 0), i32* %3)
  store i32 0, i32* %5, align 4
  br label %16

16:                                               ; preds = %25, %14
  %17 = load i32, i32* %5, align 4
  %18 = load i32, i32* %3, align 4
  %19 = icmp slt i32 %17, %18
  br i1 %19, label %20, label %28

20:                                               ; preds = %16
  %21 = load i32, i32* %5, align 4
  %22 = sext i32 %21 to i64
  %23 = getelementptr inbounds [1000 x double], [1000 x double]* %7, i64 0, i64 %22
  %24 = call i32 (i8*, ...) @__isoc99_scanf(i8* getelementptr inbounds ([4 x i8], [4 x i8]* @.str.1, i64 0, i64 0), double* %23)
  br label %25

25:                                               ; preds = %20
  %26 = load i32, i32* %5, align 4
  %27 = add nsw i32 %26, 1
  store i32 %27, i32* %5, align 4
  br label %16

28:                                               ; preds = %16
  %29 = getelementptr inbounds [1000 x double], [1000 x double]* %7, i64 0, i64 0
  %30 = load i32, i32* %3, align 4
  %31 = call double @equal(double* %29, i32 %30)
  store double %31, double* %8, align 8
  store double 0.000000e+00, double* %6, align 8
  store i32 0, i32* %5, align 4
  br label %32

32:                                               ; preds = %52, %28
  %33 = load i32, i32* %5, align 4
  %34 = load i32, i32* %3, align 4
  %35 = icmp slt i32 %33, %34
  br i1 %35, label %36, label %55

36:                                               ; preds = %32
  %37 = load i32, i32* %5, align 4
  %38 = sext i32 %37 to i64
  %39 = getelementptr inbounds [1000 x double], [1000 x double]* %7, i64 0, i64 %38
  %40 = load double, double* %39, align 8
  %41 = load double, double* %8, align 8
  %42 = fsub double %40, %41
  %43 = load i32, i32* %5, align 4
  %44 = sext i32 %43 to i64
  %45 = getelementptr inbounds [1000 x double], [1000 x double]* %7, i64 0, i64 %44
  %46 = load double, double* %45, align 8
  %47 = load double, double* %8, align 8
  %48 = fsub double %46, %47
  %49 = fmul double %42, %48
  %50 = load double, double* %6, align 8
  %51 = fadd double %50, %49
  store double %51, double* %6, align 8
  br label %52

52:                                               ; preds = %36
  %53 = load i32, i32* %5, align 4
  %54 = add nsw i32 %53, 1
  store i32 %54, i32* %5, align 4
  br label %32

55:                                               ; preds = %32
  %56 = load double, double* %6, align 8
  %57 = load i32, i32* %3, align 4
  %58 = sitofp i32 %57 to double
  %59 = fdiv double %56, %58
  store double %59, double* %6, align 8
  %60 = load double, double* %6, align 8
  %61 = call double @sqrt(double %60) #3
  store double %61, double* %6, align 8
  %62 = load double, double* %6, align 8
  %63 = call i32 (i8*, ...) @printf(i8* getelementptr inbounds ([6 x i8], [6 x i8]* @.str.2, i64 0, i64 0), double %62)
  br label %64

64:                                               ; preds = %55
  %65 = load i32, i32* %4, align 4
  %66 = add nsw i32 %65, 1
  store i32 %66, i32* %4, align 4
  br label %10

67:                                               ; preds = %10
  %68 = load i32, i32* %1, align 4
  ret i32 %68
}

declare dso_local i32 @__isoc99_scanf(i8*, ...) #1

; Function Attrs: noinline nounwind uwtable
define dso_local double @equal(double* %0, i32 %1) #0 {
  %3 = alloca double*, align 8
  %4 = alloca i32, align 4
  %5 = alloca double, align 8
  %6 = alloca i32, align 4
  store double* %0, double** %3, align 8
  store i32 %1, i32* %4, align 4
  store double 0.000000e+00, double* %5, align 8
  store i32 0, i32* %6, align 4
  br label %7

7:                                                ; preds = %19, %2
  %8 = load i32, i32* %6, align 4
  %9 = load i32, i32* %4, align 4
  %10 = icmp slt i32 %8, %9
  br i1 %10, label %11, label %22

11:                                               ; preds = %7
  %12 = load double*, double** %3, align 8
  %13 = load i32, i32* %6, align 4
  %14 = sext i32 %13 to i64
  %15 = getelementptr inbounds double, double* %12, i64 %14
  %16 = load double, double* %15, align 8
  %17 = load double, double* %5, align 8
  %18 = fadd double %17, %16
  store double %18, double* %5, align 8
  br label %19

19:                                               ; preds = %11
  %20 = load i32, i32* %6, align 4
  %21 = add nsw i32 %20, 1
  store i32 %21, i32* %6, align 4
  br label %7

22:                                               ; preds = %7
  %23 = load double, double* %5, align 8
  %24 = load i32, i32* %4, align 4
  %25 = sitofp i32 %24 to double
  %26 = fdiv double %23, %25
  store double %26, double* %5, align 8
  %27 = load double, double* %5, align 8
  ret double %27
}

; Function Attrs: nounwind
declare dso_local double @sqrt(double) #2

declare dso_local i32 @printf(i8*, ...) #1


!llvm.module.flags = !{!0}
!llvm.ident = !{!1}

!0 = !{i32 1, !"wchar_size", i32 4}
!1 = !{!"clang version 10.0.0-4ubuntu1 "}
